; Function Attrs: nounwind sspstrong uwtable
define internal range(i64 1, -7) i64 @ossl_pkcs7_copy(i64 noundef returned %0, i64 noundef %1) #0 {
  %3 = icmp eq i64 %0, 0
  %4 = and i64 %0, 7
  %5 = icmp ne i64 %4, 0
  %6 = or i1 %3, %5
  br i1 %6, label %RB_OBJ_FROZEN.exit.thread.i, label %RB_FL_ABLE.exit.i.i, !prof !31

RB_FL_ABLE.exit.i.i:                              ; preds = %2
  %7 = inttoptr i64 %0 to ptr
  %8 = load i64, ptr %7, align 8, !tbaa !32
  %9 = and i64 %8, 31
  %.not.i.i = icmp eq i64 %9, 27
  %10 = and i64 %8, 2048
  %11 = icmp ne i64 %10, 0
  %or.cond.i = or i1 %.not.i.i, %11
  br i1 %or.cond.i, label %RB_OBJ_FROZEN.exit.thread.i, label %rbimpl_RB_TYPE_P_fastpath.exit.i, !prof !33

RB_OBJ_FROZEN.exit.thread.i:                      ; preds = %RB_FL_ABLE.exit.i.i, %2
  tail call void @rb_error_frozen_object(i64 noundef %0) #6
  unreachable

rbimpl_RB_TYPE_P_fastpath.exit.i:                 ; preds = %RB_FL_ABLE.exit.i.i
  %12 = icmp ne i64 %9, 5
  %13 = and i64 %8, 49152
  %.not.i = icmp eq i64 %13, 0
  %or.cond8.i = or i1 %12, %.not.i
  br i1 %or.cond8.i, label %rb_check_frozen_inline.exit, label %14, !prof !34

14:                                               ; preds = %rbimpl_RB_TYPE_P_fastpath.exit.i
  tail call void @rb_str_modify(i64 noundef %0) #5
  br label %rb_check_frozen_inline.exit

rb_check_frozen_inline.exit:                      ; preds = %rbimpl_RB_TYPE_P_fastpath.exit.i, %14
  %15 = icmp eq i64 %0, %1
  br i1 %15, label %30, label %16

16:                                               ; preds = %rb_check_frozen_inline.exit
  %17 = tail call ptr @rb_check_typeddata(i64 noundef %0, ptr noundef nonnull @ossl_pkcs7_type) #5
  %.not = icmp eq ptr %17, null
  br i1 %.not, label %18, label %20

18:                                               ; preds = %16
  %19 = load i64, ptr @rb_eRuntimeError, align 8, !tbaa !6
  tail call void (i64, ptr, ...) @ossl_raise(i64 noundef %19, ptr noundef nonnull @.str.1) #6
  unreachable

20:                                               ; preds = %16
  %21 = tail call ptr @rb_check_typeddata(i64 noundef %1, ptr noundef nonnull @ossl_pkcs7_type) #5
  %.not18 = icmp eq ptr %21, null
  br i1 %.not18, label %22, label %24

22:                                               ; preds = %20
  %23 = load i64, ptr @rb_eRuntimeError, align 8, !tbaa !6
  tail call void (i64, ptr, ...) @ossl_raise(i64 noundef %23, ptr noundef nonnull @.str.1) #6
  unreachable

24:                                               ; preds = %20
  %25 = tail call ptr @PKCS7_dup(ptr noundef nonnull %21) #5
  %.not19 = icmp eq ptr %25, null
  br i1 %.not19, label %26, label %28

26:                                               ; preds = %24
  %27 = load i64, ptr @ePKCS7Error, align 8, !tbaa !6
  tail call void (i64, ptr, ...) @ossl_raise(i64 noundef %27, ptr noundef null) #6
  unreachable

28:                                               ; preds = %24
  %29 = getelementptr inbounds nuw i8, ptr %7, i64 32
  store ptr %25, ptr %29, align 8, !tbaa !35
  tail call void @PKCS7_free(ptr noundef nonnull %17) #5
  br label %30

30:                                               ; preds = %rb_check_frozen_inline.exit, %28
  ret i64 %0
}